target datalayout = "e-m:e-p270:32:32-p271:32:32-p272:64:64-i64:64-i128:128-f80:128-n8:16:32:64-S128"
target triple = "x86_64-pc-linux-gnu"

%struct._PyPathConfig = type { ptr, ptr, ptr, ptr, ptr, ptr, ptr, ptr, i32 }
%struct.PyStatus = type { i32, ptr, ptr, i32 }
%struct.PyConfig = type { i32, i32, i32, i32, i32, i32, i64, i32, i32, i32, i32, i32, i32, i32, ptr, i32, ptr, ptr, ptr, i32, %struct.PyWideStringList, %struct.PyWideStringList, %struct.PyWideStringList, %struct.PyWideStringList, i32, i32, i32, i32, i32, i32, i32, i32, i32, i32, i32, i32, i32, ptr, ptr, ptr, i32, i32, i32, i32, i32, ptr, ptr, ptr, ptr, i32, %struct.PyWideStringList, ptr, ptr, ptr, ptr, ptr, ptr, ptr, i32, ptr, ptr, ptr, ptr, i32, i32, i32 }
%struct.PyWideStringList = type { i64, ptr }

@_Py_path_config = hidden global { ptr, ptr, ptr, ptr, ptr, ptr, ptr, ptr, i32, [4 x i8] } zeroinitializer, align 8

; Function Attrs: nounwind uwtable
define hidden void @_PyPathConfig_ReadGlobal(ptr dead_on_unwind noalias writable sret(%struct.PyStatus) align 8 %0, ptr noundef %1) #0 {
  %3 = alloca ptr, align 8
  %4 = alloca %struct.PyStatus, align 8
  %5 = alloca %struct.PyStatus, align 8
  %6 = alloca %struct.PyStatus, align 8
  %7 = alloca %struct.PyStatus, align 8
  %8 = alloca %struct.PyStatus, align 8
  %9 = alloca %struct.PyStatus, align 8
  store ptr %1, ptr %3, align 8, !tbaa !19
  call void @llvm.memset.p0.i64(ptr align 8 %0, i8 0, i64 32, i1 false)
  br label %10

10:                                               ; preds = %2
  %11 = load ptr, ptr getelementptr inbounds nuw (%struct._PyPathConfig, ptr @_Py_path_config, i32 0, i32 1), align 8, !tbaa !12
  %12 = icmp ne ptr %11, null
  br i1 %12, label %13, label %28

13:                                               ; preds = %10
  %14 = load ptr, ptr %3, align 8, !tbaa !19
  %15 = getelementptr inbounds nuw %struct.PyConfig, ptr %14, i32 0, i32 54
  %16 = load ptr, ptr %15, align 8, !tbaa !21
  %17 = icmp ne ptr %16, null
  br i1 %17, label %28, label %18

18:                                               ; preds = %13
  call void @llvm.lifetime.start.p0(i64 32, ptr %4) #9
  %19 = load ptr, ptr %3, align 8, !tbaa !19
  %20 = load ptr, ptr %3, align 8, !tbaa !19
  %21 = getelementptr inbounds nuw %struct.PyConfig, ptr %20, i32 0, i32 54
  %22 = load ptr, ptr getelementptr inbounds nuw (%struct._PyPathConfig, ptr @_Py_path_config, i32 0, i32 1), align 8, !tbaa !12
  call void @PyConfig_SetString(ptr dead_on_unwind writable sret(%struct.PyStatus) align 8 %4, ptr noundef %19, ptr noundef %21, ptr noundef %22)
  call void @llvm.memcpy.p0.p0.i64(ptr align 8 %0, ptr align 8 %4, i64 32, i1 false), !tbaa.struct !26
  call void @llvm.lifetime.end.p0(i64 32, ptr %4) #9
  %23 = getelementptr inbounds nuw %struct.PyStatus, ptr %0, i32 0, i32 0
  %24 = load i32, ptr %23, align 8, !tbaa !30
  %25 = icmp ne i32 %24, 0
  br i1 %25, label %26, label %27

26:                                               ; preds = %18
  br label %144

27:                                               ; preds = %18
  br label %28

28:                                               ; preds = %27, %13, %10
  br label %29

29:                                               ; preds = %28
  br label %30

30:                                               ; preds = %29
  %31 = load ptr, ptr getelementptr inbounds nuw (%struct._PyPathConfig, ptr @_Py_path_config, i32 0, i32 2), align 8, !tbaa !13
  %32 = icmp ne ptr %31, null
  br i1 %32, label %33, label %48

33:                                               ; preds = %30
  %34 = load ptr, ptr %3, align 8, !tbaa !19
  %35 = getelementptr inbounds nuw %struct.PyConfig, ptr %34, i32 0, i32 56
  %36 = load ptr, ptr %35, align 8, !tbaa !32
  %37 = icmp ne ptr %36, null
  br i1 %37, label %48, label %38

38:                                               ; preds = %33
  call void @llvm.lifetime.start.p0(i64 32, ptr %5) #9
  %39 = load ptr, ptr %3, align 8, !tbaa !19
  %40 = load ptr, ptr %3, align 8, !tbaa !19
  %41 = getelementptr inbounds nuw %struct.PyConfig, ptr %40, i32 0, i32 56
  %42 = load ptr, ptr getelementptr inbounds nuw (%struct._PyPathConfig, ptr @_Py_path_config, i32 0, i32 2), align 8, !tbaa !13
  call void @PyConfig_SetString(ptr dead_on_unwind writable sret(%struct.PyStatus) align 8 %5, ptr noundef %39, ptr noundef %41, ptr noundef %42)
  call void @llvm.memcpy.p0.p0.i64(ptr align 8 %0, ptr align 8 %5, i64 32, i1 false), !tbaa.struct !26
  call void @llvm.lifetime.end.p0(i64 32, ptr %5) #9
  %43 = getelementptr inbounds nuw %struct.PyStatus, ptr %0, i32 0, i32 0
  %44 = load i32, ptr %43, align 8, !tbaa !30
  %45 = icmp ne i32 %44, 0
  br i1 %45, label %46, label %47

46:                                               ; preds = %38
  br label %144

47:                                               ; preds = %38
  br label %48

48:                                               ; preds = %47, %33, %30
  br label %49

49:                                               ; preds = %48
  br label %50

50:                                               ; preds = %49
  %51 = load ptr, ptr getelementptr inbounds nuw (%struct._PyPathConfig, ptr @_Py_path_config, i32 0, i32 3), align 8, !tbaa !14
  %52 = icmp ne ptr %51, null
  br i1 %52, label %53, label %68

53:                                               ; preds = %50
  %54 = load ptr, ptr %3, align 8, !tbaa !19
  %55 = getelementptr inbounds nuw %struct.PyConfig, ptr %54, i32 0, i32 51
  %56 = load ptr, ptr %55, align 8, !tbaa !33
  %57 = icmp ne ptr %56, null
  br i1 %57, label %68, label %58

58:                                               ; preds = %53
  call void @llvm.lifetime.start.p0(i64 32, ptr %6) #9
  %59 = load ptr, ptr %3, align 8, !tbaa !19
  %60 = load ptr, ptr %3, align 8, !tbaa !19
  %61 = getelementptr inbounds nuw %struct.PyConfig, ptr %60, i32 0, i32 51
  %62 = load ptr, ptr getelementptr inbounds nuw (%struct._PyPathConfig, ptr @_Py_path_config, i32 0, i32 3), align 8, !tbaa !14
  call void @PyConfig_SetString(ptr dead_on_unwind writable sret(%struct.PyStatus) align 8 %6, ptr noundef %59, ptr noundef %61, ptr noundef %62)
  call void @llvm.memcpy.p0.p0.i64(ptr align 8 %0, ptr align 8 %6, i64 32, i1 false), !tbaa.struct !26
  call void @llvm.lifetime.end.p0(i64 32, ptr %6) #9
  %63 = getelementptr inbounds nuw %struct.PyStatus, ptr %0, i32 0, i32 0
  %64 = load i32, ptr %63, align 8, !tbaa !30
  %65 = icmp ne i32 %64, 0
  br i1 %65, label %66, label %67

66:                                               ; preds = %58
  br label %144

67:                                               ; preds = %58
  br label %68

68:                                               ; preds = %67, %53, %50
  br label %69

69:                                               ; preds = %68
  br label %70

70:                                               ; preds = %69
  %71 = load ptr, ptr getelementptr inbounds nuw (%struct._PyPathConfig, ptr @_Py_path_config, i32 0, i32 6), align 8, !tbaa !16
  %72 = icmp ne ptr %71, null
  br i1 %72, label %73, label %88

73:                                               ; preds = %70
  %74 = load ptr, ptr %3, align 8, !tbaa !19
  %75 = getelementptr inbounds nuw %struct.PyConfig, ptr %74, i32 0, i32 45
  %76 = load ptr, ptr %75, align 8, !tbaa !34
  %77 = icmp ne ptr %76, null
  br i1 %77, label %88, label %78

78:                                               ; preds = %73
  call void @llvm.lifetime.start.p0(i64 32, ptr %7) #9
  %79 = load ptr, ptr %3, align 8, !tbaa !19
  %80 = load ptr, ptr %3, align 8, !tbaa !19
  %81 = getelementptr inbounds nuw %struct.PyConfig, ptr %80, i32 0, i32 45
  %82 = load ptr, ptr getelementptr inbounds nuw (%struct._PyPathConfig, ptr @_Py_path_config, i32 0, i32 6), align 8, !tbaa !16
  call void @PyConfig_SetString(ptr dead_on_unwind writable sret(%struct.PyStatus) align 8 %7, ptr noundef %79, ptr noundef %81, ptr noundef %82)
  call void @llvm.memcpy.p0.p0.i64(ptr align 8 %0, ptr align 8 %7, i64 32, i1 false), !tbaa.struct !26
  call void @llvm.lifetime.end.p0(i64 32, ptr %7) #9
  %83 = getelementptr inbounds nuw %struct.PyStatus, ptr %0, i32 0, i32 0
  %84 = load i32, ptr %83, align 8, !tbaa !30
  %85 = icmp ne i32 %84, 0
  br i1 %85, label %86, label %87

86:                                               ; preds = %78
  br label %144

87:                                               ; preds = %78
  br label %88

88:                                               ; preds = %87, %73, %70
  br label %89

89:                                               ; preds = %88
  br label %90

90:                                               ; preds = %89
  %91 = load ptr, ptr getelementptr inbounds nuw (%struct._PyPathConfig, ptr @_Py_path_config, i32 0, i32 7), align 8, !tbaa !17
  %92 = icmp ne ptr %91, null
  br i1 %92, label %93, label %108

93:                                               ; preds = %90
  %94 = load ptr, ptr %3, align 8, !tbaa !19
  %95 = getelementptr inbounds nuw %struct.PyConfig, ptr %94, i32 0, i32 47
  %96 = load ptr, ptr %95, align 8, !tbaa !35
  %97 = icmp ne ptr %96, null
  br i1 %97, label %108, label %98

98:                                               ; preds = %93
  call void @llvm.lifetime.start.p0(i64 32, ptr %8) #9
  %99 = load ptr, ptr %3, align 8, !tbaa !19
  %100 = load ptr, ptr %3, align 8, !tbaa !19
  %101 = getelementptr inbounds nuw %struct.PyConfig, ptr %100, i32 0, i32 47
  %102 = load ptr, ptr getelementptr inbounds nuw (%struct._PyPathConfig, ptr @_Py_path_config, i32 0, i32 7), align 8, !tbaa !17
  call void @PyConfig_SetString(ptr dead_on_unwind writable sret(%struct.PyStatus) align 8 %8, ptr noundef %99, ptr noundef %101, ptr noundef %102)
  call void @llvm.memcpy.p0.p0.i64(ptr align 8 %0, ptr align 8 %8, i64 32, i1 false), !tbaa.struct !26
  call void @llvm.lifetime.end.p0(i64 32, ptr %8) #9
  %103 = getelementptr inbounds nuw %struct.PyStatus, ptr %0, i32 0, i32 0
  %104 = load i32, ptr %103, align 8, !tbaa !30
  %105 = icmp ne i32 %104, 0
  br i1 %105, label %106, label %107

106:                                              ; preds = %98
  br label %144

107:                                              ; preds = %98
  br label %108

108:                                              ; preds = %107, %93, %90
  br label %109

109:                                              ; preds = %108
  br label %110

110:                                              ; preds = %109
  %111 = load ptr, ptr @_Py_path_config, align 8, !tbaa !11
  %112 = icmp ne ptr %111, null
  br i1 %112, label %113, label %128

113:                                              ; preds = %110
  %114 = load ptr, ptr %3, align 8, !tbaa !19
  %115 = getelementptr inbounds nuw %struct.PyConfig, ptr %114, i32 0, i32 52
  %116 = load ptr, ptr %115, align 8, !tbaa !36
  %117 = icmp ne ptr %116, null
  br i1 %117, label %128, label %118

118:                                              ; preds = %113
  call void @llvm.lifetime.start.p0(i64 32, ptr %9) #9
  %119 = load ptr, ptr %3, align 8, !tbaa !19
  %120 = load ptr, ptr %3, align 8, !tbaa !19
  %121 = getelementptr inbounds nuw %struct.PyConfig, ptr %120, i32 0, i32 52
  %122 = load ptr, ptr @_Py_path_config, align 8, !tbaa !11
  call void @PyConfig_SetString(ptr dead_on_unwind writable sret(%struct.PyStatus) align 8 %9, ptr noundef %119, ptr noundef %121, ptr noundef %122)
  call void @llvm.memcpy.p0.p0.i64(ptr align 8 %0, ptr align 8 %9, i64 32, i1 false), !tbaa.struct !26
  call void @llvm.lifetime.end.p0(i64 32, ptr %9) #9
  %123 = getelementptr inbounds nuw %struct.PyStatus, ptr %0, i32 0, i32 0
  %124 = load i32, ptr %123, align 8, !tbaa !30
  %125 = icmp ne i32 %124, 0
  br i1 %125, label %126, label %127

126:                                              ; preds = %118
  br label %144

127:                                              ; preds = %118
  br label %128

128:                                              ; preds = %127, %113, %110
  br label %129

129:                                              ; preds = %128
  br label %130

130:                                              ; preds = %129
  %131 = load i32, ptr getelementptr inbounds nuw (%struct._PyPathConfig, ptr @_Py_path_config, i32 0, i32 8), align 8, !tbaa !18
  %132 = icmp sge i32 %131, 0
  br i1 %132, label %133, label %142

133:                                              ; preds = %130
  %134 = load ptr, ptr %3, align 8, !tbaa !19
  %135 = getelementptr inbounds nuw %struct.PyConfig, ptr %134, i32 0, i32 65
  %136 = load i32, ptr %135, align 8, !tbaa !37
  %137 = icmp sle i32 %136, 0
  br i1 %137, label %138, label %142

138:                                              ; preds = %133
  %139 = load i32, ptr getelementptr inbounds nuw (%struct._PyPathConfig, ptr @_Py_path_config, i32 0, i32 8), align 8, !tbaa !18
  %140 = load ptr, ptr %3, align 8, !tbaa !19
  %141 = getelementptr inbounds nuw %struct.PyConfig, ptr %140, i32 0, i32 65
  store i32 %139, ptr %141, align 8, !tbaa !37
  br label %142

142:                                              ; preds = %138, %133, %130
  br label %143

143:                                              ; preds = %142
  br label %144

144:                                              ; preds = %143, %126, %106, %86, %66, %46, %26
  ret void
}