; Function Attrs: nounwind uwtable
define hidden void @_PyPathConfig_ReadGlobal(ptr dead_on_unwind noalias writable sret(%struct.PyStatus) align 8 captures(none) initializes((0, 32)) %0, ptr noundef %1) local_unnamed_addr #1 {
  %3 = alloca %struct.PyStatus, align 8
  %4 = alloca %struct.PyStatus, align 8
  %5 = alloca %struct.PyStatus, align 8
  %6 = alloca %struct.PyStatus, align 8
  %7 = alloca %struct.PyStatus, align 8
  tail call void @llvm.memset.p0.i64(ptr noundef nonnull align 8 dereferenceable(32) %0, i8 0, i64 32, i1 false)
  %8 = load ptr, ptr getelementptr inbounds nuw (i8, ptr @_Py_path_config, i64 8), align 8, !tbaa !12
  %.not = icmp eq ptr %8, null
  br i1 %.not, label %14, label %9

9:                                                ; preds = %2
  %10 = getelementptr inbounds nuw i8, ptr %1, i64 360
  %11 = load ptr, ptr %10, align 8, !tbaa !19
  %.not21 = icmp eq ptr %11, null
  br i1 %.not21, label %12, label %14

12:                                               ; preds = %9
  tail call void @PyConfig_SetString(ptr dead_on_unwind nonnull writable sret(%struct.PyStatus) align 8 %0, ptr noundef nonnull %1, ptr noundef nonnull %10, ptr noundef nonnull %8) #12
  %13 = load i32, ptr %0, align 8, !tbaa !24
  %.not22 = icmp eq i32 %13, 0
  br i1 %.not22, label %14, label %59

14:                                               ; preds = %12, %9, %2
  %15 = load ptr, ptr getelementptr inbounds nuw (i8, ptr @_Py_path_config, i64 16), align 8, !tbaa !13
  %.not23 = icmp eq ptr %15, null
  br i1 %.not23, label %21, label %16

16:                                               ; preds = %14
  %17 = getelementptr inbounds nuw i8, ptr %1, i64 376
  %18 = load ptr, ptr %17, align 8, !tbaa !27
  %.not24 = icmp eq ptr %18, null
  br i1 %.not24, label %19, label %21

19:                                               ; preds = %16
  call void @llvm.lifetime.start.p0(i64 32, ptr nonnull %3) #12
  call void @PyConfig_SetString(ptr dead_on_unwind nonnull writable sret(%struct.PyStatus) align 8 %3, ptr noundef nonnull %1, ptr noundef nonnull %17, ptr noundef nonnull %15) #12
  call void @llvm.memcpy.p0.p0.i64(ptr noundef nonnull align 8 dereferenceable(32) %0, ptr noundef nonnull align 8 dereferenceable(32) %3, i64 32, i1 false), !tbaa.struct !28
  call void @llvm.lifetime.end.p0(i64 32, ptr nonnull %3) #12
  %20 = load i32, ptr %0, align 8, !tbaa !24
  %.not25 = icmp eq i32 %20, 0
  br i1 %.not25, label %21, label %59

21:                                               ; preds = %19, %16, %14
  %22 = load ptr, ptr getelementptr inbounds nuw (i8, ptr @_Py_path_config, i64 24), align 8, !tbaa !14
  %.not26 = icmp eq ptr %22, null
  br i1 %.not26, label %28, label %23

23:                                               ; preds = %21
  %24 = getelementptr inbounds nuw i8, ptr %1, i64 336
  %25 = load ptr, ptr %24, align 8, !tbaa !31
  %.not27 = icmp eq ptr %25, null
  br i1 %.not27, label %26, label %28

26:                                               ; preds = %23
  call void @llvm.lifetime.start.p0(i64 32, ptr nonnull %4) #12
  call void @PyConfig_SetString(ptr dead_on_unwind nonnull writable sret(%struct.PyStatus) align 8 %4, ptr noundef nonnull %1, ptr noundef nonnull %24, ptr noundef nonnull %22) #12
  call void @llvm.memcpy.p0.p0.i64(ptr noundef nonnull align 8 dereferenceable(32) %0, ptr noundef nonnull align 8 dereferenceable(32) %4, i64 32, i1 false), !tbaa.struct !28
  call void @llvm.lifetime.end.p0(i64 32, ptr nonnull %4) #12
  %27 = load i32, ptr %0, align 8, !tbaa !24
  %.not28 = icmp eq i32 %27, 0
  br i1 %.not28, label %28, label %59

28:                                               ; preds = %26, %23, %21
  %29 = load ptr, ptr getelementptr inbounds nuw (i8, ptr @_Py_path_config, i64 48), align 8, !tbaa !16
  %.not29 = icmp eq ptr %29, null
  br i1 %.not29, label %35, label %30

30:                                               ; preds = %28
  %31 = getelementptr inbounds nuw i8, ptr %1, i64 280
  %32 = load ptr, ptr %31, align 8, !tbaa !32
  %.not30 = icmp eq ptr %32, null
  br i1 %.not30, label %33, label %35

33:                                               ; preds = %30
  call void @llvm.lifetime.start.p0(i64 32, ptr nonnull %5) #12
  call void @PyConfig_SetString(ptr dead_on_unwind nonnull writable sret(%struct.PyStatus) align 8 %5, ptr noundef nonnull %1, ptr noundef nonnull %31, ptr noundef nonnull %29) #12
  call void @llvm.memcpy.p0.p0.i64(ptr noundef nonnull align 8 dereferenceable(32) %0, ptr noundef nonnull align 8 dereferenceable(32) %5, i64 32, i1 false), !tbaa.struct !28
  call void @llvm.lifetime.end.p0(i64 32, ptr nonnull %5) #12
  %34 = load i32, ptr %0, align 8, !tbaa !24
  %.not31 = icmp eq i32 %34, 0
  br i1 %.not31, label %35, label %59

35:                                               ; preds = %33, %30, %28
  %36 = load ptr, ptr getelementptr inbounds nuw (i8, ptr @_Py_path_config, i64 56), align 8, !tbaa !17
  %.not32 = icmp eq ptr %36, null
  br i1 %.not32, label %42, label %37

37:                                               ; preds = %35
  %38 = getelementptr inbounds nuw i8, ptr %1, i64 296
  %39 = load ptr, ptr %38, align 8, !tbaa !33
  %.not33 = icmp eq ptr %39, null
  br i1 %.not33, label %40, label %42

40:                                               ; preds = %37
  call void @llvm.lifetime.start.p0(i64 32, ptr nonnull %6) #12
  call void @PyConfig_SetString(ptr dead_on_unwind nonnull writable sret(%struct.PyStatus) align 8 %6, ptr noundef nonnull %1, ptr noundef nonnull %38, ptr noundef nonnull %36) #12
  call void @llvm.memcpy.p0.p0.i64(ptr noundef nonnull align 8 dereferenceable(32) %0, ptr noundef nonnull align 8 dereferenceable(32) %6, i64 32, i1 false), !tbaa.struct !28
  call void @llvm.lifetime.end.p0(i64 32, ptr nonnull %6) #12
  %41 = load i32, ptr %0, align 8, !tbaa !24
  %.not34 = icmp eq i32 %41, 0
  br i1 %.not34, label %42, label %59

42:                                               ; preds = %40, %37, %35
  %43 = load ptr, ptr @_Py_path_config, align 8, !tbaa !11
  %.not35 = icmp eq ptr %43, null
  br i1 %.not35, label %52, label %44

44:                                               ; preds = %42
  %45 = getelementptr inbounds nuw i8, ptr %1, i64 344
  %46 = load ptr, ptr %45, align 8, !tbaa !34
  %.not36 = icmp eq ptr %46, null
  br i1 %.not36, label %47, label %52

47:                                               ; preds = %44
  call void @llvm.lifetime.start.p0(i64 32, ptr nonnull %7) #12
  call void @PyConfig_SetString(ptr dead_on_unwind nonnull writable sret(%struct.PyStatus) align 8 %7, ptr noundef nonnull %1, ptr noundef nonnull %45, ptr noundef nonnull %43) #12
  call void @llvm.memcpy.p0.p0.i64(ptr noundef nonnull align 8 dereferenceable(32) %0, ptr noundef nonnull align 8 dereferenceable(32) %7, i64 32, i1 false), !tbaa.struct !28
  call void @llvm.lifetime.end.p0(i64 32, ptr nonnull %7) #12
  %48 = load i32, ptr %0, align 8, !tbaa !24
  %49 = icmp eq i32 %48, 0
  %50 = load i32, ptr getelementptr inbounds nuw (i8, ptr @_Py_path_config, i64 64), align 8
  %51 = icmp sgt i32 %50, -1
  %or.cond = select i1 %49, i1 %51, i1 false
  br i1 %or.cond, label %53, label %59

52:                                               ; preds = %44, %42
  %.old = load i32, ptr getelementptr inbounds nuw (i8, ptr @_Py_path_config, i64 64), align 8, !tbaa !18
  %.old1 = icmp sgt i32 %.old, -1
  br i1 %.old1, label %53, label %59

53:                                               ; preds = %47, %52
  %54 = phi i32 [ %50, %47 ], [ %.old, %52 ]
  %55 = getelementptr inbounds nuw i8, ptr %1, i64 440
  %56 = load i32, ptr %55, align 8, !tbaa !35
  %57 = icmp slt i32 %56, 1
  br i1 %57, label %58, label %59

58:                                               ; preds = %53
  store i32 %54, ptr %55, align 8, !tbaa !35
  br label %59

59:                                               ; preds = %58, %53, %52, %47, %40, %33, %26, %19, %12
  ret void
}